; Function Attrs: mustprogress uwtable
define void @_ZN4toml2v34impl15print_to_streamERSosNS0_11value_flagsEm(ptr noundef nonnull align 8 dereferenceable(8) %0, i16 noundef signext %1, i16 noundef zeroext %2, i64 noundef %3) local_unnamed_addr #0 {
  %5 = alloca [16 x i8], align 16
  %.not.i = icmp eq i16 %1, 0
  br i1 %.not.i, label %6, label %10

6:                                                ; preds = %4
  %umax.i = tail call i64 @llvm.umax.i64(i64 %3, i64 1)
  br label %7

7:                                                ; preds = %7, %6
  %.02435.i = phi i64 [ 0, %6 ], [ %9, %7 ]
  %8 = tail call noundef nonnull align 8 dereferenceable(8) ptr @_ZNSo3putEc(ptr noundef nonnull align 8 dereferenceable(8) %0, i8 noundef signext 48)
  %9 = add nuw i64 %.02435.i, 1
  %exitcond37.not.i = icmp eq i64 %9, %umax.i
  br i1 %exitcond37.not.i, label %_ZN12_GLOBAL__N_123print_integer_to_streamIsEEvRSoT_N4toml2v311value_flagsEm.exit, label %7, !llvm.loop !17

10:                                               ; preds = %4
  %11 = and i16 %2, 3
  %12 = icmp ne i16 %11, 0
  %13 = icmp sgt i16 %1, 0
  %or.cond.i = and i1 %13, %12
  br i1 %or.cond.i, label %14, label %17

14:                                               ; preds = %10
  switch i16 %11, label %default.unreachable.i [
    i16 1, label %17
    i16 2, label %15
    i16 3, label %16
  ]

15:                                               ; preds = %14
  br label %17

16:                                               ; preds = %14
  br label %17

default.unreachable.i:                            ; preds = %14
  unreachable

17:                                               ; preds = %16, %15, %14, %10
  %18 = phi i1 [ true, %16 ], [ false, %15 ], [ false, %10 ], [ false, %14 ]
  %.025.i = phi i32 [ 16, %16 ], [ 8, %15 ], [ 10, %10 ], [ 2, %14 ]
  call void @llvm.lifetime.start.p0(i64 16, ptr nonnull %5) #50
  %19 = getelementptr inbounds nuw i8, ptr %5, i64 16
  %20 = call { ptr, i32 } @_ZSt12__to_chars_iIsENSt9enable_ifIXsr5__or_ISt5__or_IJSt7is_sameINSt9remove_cvIT_E4typeEaES2_IS6_sES2_IS6_iES2_IS6_lES2_IS6_xES2_IS6_nEEES1_IJS2_IS6_hES2_IS6_tES2_IS6_jES2_IS6_mES2_IS6_yES2_IS6_oEEES2_IcS6_EEE5valueESt15to_chars_resultE4typeEPcSP_S4_i(ptr noundef nonnull %5, ptr noundef nonnull %19, i16 noundef signext %1, i32 noundef %.025.i)
  %21 = extractvalue { ptr, i32 } %20, 0
  %22 = ptrtoint ptr %21 to i64
  %23 = ptrtoint ptr %5 to i64
  %24 = sub i64 %22, %23
  %25 = icmp ult i64 %24, %3
  br i1 %25, label %.lr.ph.i, label %._crit_edge.i

._crit_edge.i:                                    ; preds = %.lr.ph.i, %17
  %26 = icmp ne i64 %24, 0
  %or.cond36.i = and i1 %18, %26
  br i1 %or.cond36.i, label %.lr.ph34.i, label %.loopexit31.i

.lr.ph.i:                                         ; preds = %17, %.lr.ph.i
  %.02332.i = phi i64 [ %28, %.lr.ph.i ], [ %24, %17 ]
  %27 = call noundef nonnull align 8 dereferenceable(8) ptr @_ZNSo3putEc(ptr noundef nonnull align 8 dereferenceable(8) %0, i8 noundef signext 48)
  %28 = add nuw i64 %.02332.i, 1
  %29 = icmp ult i64 %28, %3
  br i1 %29, label %.lr.ph.i, label %._crit_edge.i, !llvm.loop !18

.lr.ph34.i:                                       ; preds = %._crit_edge.i, %35
  %.033.i = phi i64 [ %36, %35 ], [ 0, %._crit_edge.i ]
  %30 = getelementptr inbounds nuw [16 x i8], ptr %5, i64 0, i64 %.033.i
  %31 = load i8, ptr %30, align 1, !tbaa !15
  %32 = icmp sgt i8 %31, 96
  br i1 %32, label %33, label %35

33:                                               ; preds = %.lr.ph34.i
  %34 = add nsw i8 %31, -32
  store i8 %34, ptr %30, align 1, !tbaa !15
  br label %35

35:                                               ; preds = %33, %.lr.ph34.i
  %36 = add nuw i64 %.033.i, 1
  %exitcond.not.i = icmp eq i64 %36, %24
  br i1 %exitcond.not.i, label %.loopexit31.i, label %.lr.ph34.i, !llvm.loop !19

.loopexit31.i:                                    ; preds = %35, %._crit_edge.i
  %37 = call noundef nonnull align 8 dereferenceable(8) ptr @_ZNSo5writeEPKcl(ptr noundef nonnull align 8 dereferenceable(8) %0, ptr noundef nonnull %5, i64 noundef %24)
  call void @llvm.lifetime.end.p0(i64 16, ptr nonnull %5) #50
  br label %_ZN12_GLOBAL__N_123print_integer_to_streamIsEEvRSoT_N4toml2v311value_flagsEm.exit

_ZN12_GLOBAL__N_123print_integer_to_streamIsEEvRSoT_N4toml2v311value_flagsEm.exit: ; preds = %7, %.loopexit31.i
  ret void
}